Certificate:
    Data:
        Version: 3 (0x2)
        Serial Number: 4 (0x4)
        Signature Algorithm: sha256WithRSAEncryption
        Issuer: C=GB, ST=Derbyshire, O=Mosquitto Project, OU=Testing, CN=Signing CA
        Validity
            Not Before: Jul  7 22:27:29 2025 GMT
            Not After : Jul  6 22:27:29 2030 GMT
        Subject: C=GB, ST=Nottinghamshire, L=Nottingham, O=Server, OU=Production, CN=test client
        Subject Public Key Info:
            Public Key Algorithm: rsaEncryption
                Public-Key: (2048 bit)
                Modulus:
                    00:ac:1f:ca:f2:7e:89:98:fe:19:63:e6:c9:d2:0b:
                    28:95:83:29:55:9a:85:a9:48:5b:a5:6c:0f:a2:ea:
                    85:93:0a:14:25:2b:5e:aa:f2:2d:e2:d5:a5:37:d0:
                    e5:e3:1e:4f:32:44:a2:46:6f:81:92:13:4c:a6:7b:
                    2f:27:7c:5f:ae:db:1d:84:78:da:c4:f0:ba:2d:16:
                    87:15:b7:8f:37:b2:1a:cf:64:38:49:e6:43:f5:a9:
                    24:78:2d:39:4d:6f:6c:8d:7d:90:c6:07:ec:74:d0:
                    69:be:c0:93:4a:cb:8a:cc:ba:ba:76:52:8b:33:33:
                    43:d8:35:15:d7:a6:3e:52:37:3e:cc:3e:95:c5:0e:
                    24:03:94:d3:8d:b0:2a:db:f5:1d:58:33:ee:f4:a8:
                    20:88:1d:50:2f:b4:08:3c:11:6f:0a:08:af:67:26:
                    60:8b:f4:4b:4d:12:3a:a6:b5:26:08:3f:13:a9:5d:
                    64:48:25:75:a1:a8:ae:45:90:57:3e:c3:f1:d1:d2:
                    2f:84:c4:d0:16:e4:fc:56:c4:5f:e2:c4:35:c0:fc:
                    0c:f8:be:2a:45:49:1e:b8:3f:9f:0b:b3:9b:07:9c:
                    fc:f9:e3:4f:4a:12:5f:03:f7:a1:40:70:df:8c:5b:
                    b2:cd:c7:11:ed:b1:ba:4a:96:67:87:30:ac:e8:28:
                    63:69
                Exponent: 65537 (0x10001)
        X509v3 extensions:
            X509v3 Basic Constraints: critical
                CA:FALSE
            Netscape Comment: 
                OpenSSL Generated Certificate
            X509v3 Subject Key Identifier: 
                B4:A4:7F:13:73:10:9B:B7:C4:94:64:22:E3:79:02:B0:99:78:D3:73
            X509v3 Authority Key Identifier: 
                C8:63:DE:29:66:24:95:5D:B2:37:6D:F6:A2:01:85:AE:31:0F:8E:45
    Signature Algorithm: sha256WithRSAEncryption
    Signature Value:
        0b:53:02:33:dc:40:59:0f:4e:00:7e:7e:8d:b0:5d:65:3f:de:
        fc:bd:f7:6d:c2:38:55:0c:26:97:d6:04:50:af:94:87:20:1e:
        d8:cb:8f:22:4f:97:0e:f3:f6:89:34:c3:8d:60:f4:c0:a7:24:
        23:65:12:10:39:5e:f5:db:10:a1:53:17:b0:90:fa:76:97:00:
        be:22:2e:9a:8a:e8:a1:f5:b3:44:00:43:33:42:07:90:de:b6:
        73:a4:c4:24:d7:c2:c0:e8:3f:fb:79:ef:27:2a:93:d8:5b:e7:
        f7:d4:3b:55:38:b0:0f:59:9a:c2:52:f6:19:75:45:44:6c:1c:
        ef:35:6b:23:7f:da:fb:07:94:36:12:1b:f7:7f:88:f4:19:66:
        66:60:5f:58:7d:cd:ff:f6:18:96:8d:34:42:a7:fa:ad:42:da:
        d7:10:b2:57:cd:48:9f:47:d5:a2:5d:fa:33:0c:46:b1:59:50:
        03:3c:d8:89:76:d5:2f:b9:48:68:6b:50:c6:e8:0b:8d:a7:4e:
        0a:0c:b4:0f:d5:79:30:02:41:4e:13:f5:b2:7c:03:02:9a:df:
        77:80:c6:7d:83:72:0f:02:19:7c:57:cb:b6:7d:d5:50:12:44:
        d4:b3:2f:a0:27:35:f0:11:f1:54:a9:6f:2f:8a:13:18:49:d9:
        bb:ee:59:ae
-----BEGIN CERTIFICATE-----
MIID1jCCAr6gAwIBAgIBBDANBgkqhkiG9w0BAQsFADBlMQswCQYDVQQGEwJHQjET
MBEGA1UECAwKRGVyYnlzaGlyZTEaMBgGA1UECgwRTW9zcXVpdHRvIFByb2plY3Qx
EDAOBgNVBAsMB1Rlc3RpbmcxEzARBgNVBAMMClNpZ25pbmcgQ0EwHhcNMjUwNzA3
MjIyNzI5WhcNMzAwNzA2MjIyNzI5WjB4MQswCQYDVQQGEwJHQjEYMBYGA1UECAwP
Tm90dGluZ2hhbXNoaXJlMRMwEQYDVQQHDApOb3R0aW5naGFtMQ8wDQYDVQQKDAZT
ZXJ2ZXIxEzARBgNVBAsMClByb2R1Y3Rpb24xFDASBgNVBAMMC3Rlc3QgY2xpZW50
MIIBIjANBgkqhkiG9w0BAQEFAAOCAQ8AMIIBCgKCAQEArB/K8n6JmP4ZY+bJ0gso
lYMpVZqFqUhbpWwPouqFkwoUJSteqvIt4tWlN9Dl4x5PMkSiRm+BkhNMpnsvJ3xf
rtsdhHjaxPC6LRaHFbePN7Iaz2Q4SeZD9akkeC05TW9sjX2QxgfsdNBpvsCTSsuK
zLq6dlKLMzND2DUV16Y+Ujc+zD6VxQ4kA5TTjbAq2/UdWDPu9KggiB1QL7QIPBFv
CgivZyZgi/RLTRI6prUmCD8TqV1kSCV1oaiuRZBXPsPx0dIvhMTQFuT8VsRf4sQ1
wPwM+L4qRUkeuD+fC7ObB5z8+eNPShJfA/ehQHDfjFuyzccR7bG6SpZnhzCs6Chj
aQIDAQABo34wfDAMBgNVHRMBAf8EAjAAMCwGCWCGSAGG+EIBDQQfFh1PcGVuU1NM
IEdlbmVyYXRlZCBDZXJ0aWZpY2F0ZTAdBgNVHQ4EFgQUtKR/E3MQm7fElGQi43kC
sJl403MwHwYDVR0jBBgwFoAUyGPeKWYklV2yN232ogGFrjEPjkUwDQYJKoZIhvcN
AQELBQADggEBAAtTAjPcQFkPTgB+fo2wXWU/3vy9923COFUMJpfWBFCvlIcgHtjL
jyJPlw7z9ok0w41g9MCnJCNlEhA5XvXbEKFTF7CQ+naXAL4iLpqK6KH1s0QAQzNC
B5DetnOkxCTXwsDoP/t57ycqk9hb5/fUO1U4sA9ZmsJS9hl1RURsHO81ayN/2vsH
lDYSG/d/iPQZZmZgX1h9zf/2GJaNNEKn+q1C2tcQslfNSJ9H1aJd+jMMRrFZUAM8
2Il21S+5SGhrUMboC42nTgoMtA/VeTACQU4T9bJ8AwKa33eAxn2Dcg8CGXxXy7Z9
1VASRNSzL6AnNfAR8VSpby+KExhJ2bvuWa4=
-----END CERTIFICATE-----
