Certificate:
    Data:
        Version: 3 (0x2)
        Serial Number: 6 (0x6)
        Signature Algorithm: sha256WithRSAEncryption
        Issuer: C=GB, ST=Derbyshire, O=Mosquitto Project, OU=Testing, CN=Signing CA
        Validity
            Not Before: Jul  7 22:27:29 2025 GMT
            Not After : Jul  6 22:27:29 2030 GMT
        Subject: C=GB, ST=Nottinghamshire, L=Nottingham, O=Server, OU=Production, CN=test client revoked
        Subject Public Key Info:
            Public Key Algorithm: rsaEncryption
                Public-Key: (2048 bit)
                Modulus:
                    00:ae:b6:68:e8:c4:ef:75:5c:6c:db:bb:a2:04:78:
                    49:8f:b5:81:9d:6f:e7:6d:60:09:fb:ad:cf:d3:60:
                    14:b2:de:5b:f2:18:fb:1d:8a:40:4e:b0:7c:37:7b:
                    df:30:0f:c9:a6:56:5e:da:a6:ba:82:6f:7a:64:6b:
                    fe:7d:c0:64:27:13:bb:1e:ba:40:3b:bf:15:2d:ce:
                    ff:fe:1f:80:33:12:1f:a8:d2:59:cf:72:94:a4:03:
                    07:bc:0d:25:ca:53:76:6b:9c:76:7f:c7:1b:45:24:
                    39:33:04:6e:53:54:d3:f5:c4:f2:b6:52:d0:e2:aa:
                    ac:6b:2b:52:d6:09:70:00:3d:ce:62:5c:e5:61:e7:
                    a8:cb:1e:6a:93:f0:0e:17:6d:a6:ed:81:1b:38:34:
                    85:94:a0:36:7c:78:44:cd:7b:a4:91:00:94:5e:9b:
                    2b:c3:62:62:fe:ed:63:60:4d:05:73:b0:a7:dc:12:
                    7b:04:b1:18:88:f4:75:36:cd:60:6b:67:81:99:9a:
                    8d:17:6a:99:41:a8:2d:fe:07:64:65:f1:ad:6c:21:
                    79:d7:5b:35:00:de:94:6c:c3:9e:dd:6d:17:b5:e0:
                    26:e1:71:a0:78:b3:ec:96:13:d8:2f:6b:62:50:ba:
                    ea:0b:70:04:17:6d:a4:79:03:88:e8:33:ce:9d:b2:
                    73:c5
                Exponent: 65537 (0x10001)
        X509v3 extensions:
            X509v3 Basic Constraints: critical
                CA:FALSE
            Netscape Comment: 
                OpenSSL Generated Certificate
            X509v3 Subject Key Identifier: 
                52:D2:DC:93:96:71:8E:C1:AD:9F:B4:D8:A7:6D:DB:08:C5:1C:C7:97
            X509v3 Authority Key Identifier: 
                C8:63:DE:29:66:24:95:5D:B2:37:6D:F6:A2:01:85:AE:31:0F:8E:45
    Signature Algorithm: sha256WithRSAEncryption
    Signature Value:
        9e:24:32:86:72:08:e7:79:8f:6c:21:15:52:b8:1f:01:75:a5:
        7d:a8:60:1e:f8:da:39:3d:0c:f9:8a:e1:1e:97:81:4d:76:27:
        fa:97:a1:70:2c:79:26:ca:e6:f0:20:ec:1a:fd:2e:dc:73:58:
        d7:24:d1:ef:c8:f4:2c:e9:4f:29:d5:a5:67:a0:b0:c3:e9:ec:
        8e:67:9d:b6:02:cb:1b:c8:8d:cf:7b:80:65:f8:65:b2:bd:f1:
        96:b9:9d:34:ba:18:51:b4:0b:e7:95:99:80:b9:46:19:d7:d2:
        ab:a2:fb:67:1f:82:5d:73:66:40:0b:4b:b6:63:7a:08:6e:58:
        9c:51:b8:c3:05:c3:84:52:cd:2b:20:3c:03:79:a8:bf:2e:fe:
        2e:d6:50:9c:5e:1f:22:56:12:e8:f5:ab:01:18:41:be:56:21:
        f6:53:15:83:8a:de:3a:66:f2:f4:0f:25:91:f7:93:85:25:e5:
        80:36:45:15:89:a8:46:bb:c3:ba:d4:71:3d:f6:ee:b0:29:9c:
        f9:e1:60:62:d8:f0:f6:4c:3e:71:66:fb:85:53:34:fb:f4:a7:
        20:e5:43:ca:84:32:d8:5b:44:ab:9d:45:f4:3e:90:fa:0a:8a:
        47:26:c4:85:99:e5:df:4c:68:eb:a2:8c:60:36:8b:07:00:ce:
        3b:63:41:4a
-----BEGIN CERTIFICATE-----
MIID3zCCAsegAwIBAgIBBjANBgkqhkiG9w0BAQsFADBlMQswCQYDVQQGEwJHQjET
MBEGA1UECAwKRGVyYnlzaGlyZTEaMBgGA1UECgwRTW9zcXVpdHRvIFByb2plY3Qx
EDAOBgNVBAsMB1Rlc3RpbmcxEzARBgNVBAMMClNpZ25pbmcgQ0EwHhcNMjUwNzA3
MjIyNzI5WhcNMzAwNzA2MjIyNzI5WjCBgDELMAkGA1UEBhMCR0IxGDAWBgNVBAgM
D05vdHRpbmdoYW1zaGlyZTETMBEGA1UEBwwKTm90dGluZ2hhbTEPMA0GA1UECgwG
U2VydmVyMRMwEQYDVQQLDApQcm9kdWN0aW9uMRwwGgYDVQQDDBN0ZXN0IGNsaWVu
dCByZXZva2VkMIIBIjANBgkqhkiG9w0BAQEFAAOCAQ8AMIIBCgKCAQEArrZo6MTv
dVxs27uiBHhJj7WBnW/nbWAJ+63P02AUst5b8hj7HYpATrB8N3vfMA/JplZe2qa6
gm96ZGv+fcBkJxO7HrpAO78VLc7//h+AMxIfqNJZz3KUpAMHvA0lylN2a5x2f8cb
RSQ5MwRuU1TT9cTytlLQ4qqsaytS1glwAD3OYlzlYeeoyx5qk/AOF22m7YEbODSF
lKA2fHhEzXukkQCUXpsrw2Ji/u1jYE0Fc7Cn3BJ7BLEYiPR1Ns1ga2eBmZqNF2qZ
Qagt/gdkZfGtbCF511s1AN6UbMOe3W0XteAm4XGgeLPslhPYL2tiULrqC3AEF22k
eQOI6DPOnbJzxQIDAQABo34wfDAMBgNVHRMBAf8EAjAAMCwGCWCGSAGG+EIBDQQf
Fh1PcGVuU1NMIEdlbmVyYXRlZCBDZXJ0aWZpY2F0ZTAdBgNVHQ4EFgQUUtLck5Zx
jsGtn7TYp23bCMUcx5cwHwYDVR0jBBgwFoAUyGPeKWYklV2yN232ogGFrjEPjkUw
DQYJKoZIhvcNAQELBQADggEBAJ4kMoZyCOd5j2whFVK4HwF1pX2oYB742jk9DPmK
4R6XgU12J/qXoXAseSbK5vAg7Br9LtxzWNck0e/I9CzpTynVpWegsMPp7I5nnbYC
yxvIjc97gGX4ZbK98Za5nTS6GFG0C+eVmYC5RhnX0qui+2cfgl1zZkALS7Zjeghu
WJxRuMMFw4RSzSsgPAN5qL8u/i7WUJxeHyJWEuj1qwEYQb5WIfZTFYOK3jpm8vQP
JZH3k4Ul5YA2RRWJqEa7w7rUcT327rApnPnhYGLY8PZMPnFm+4VTNPv0pyDlQ8qE
MthbRKudRfQ+kPoKikcmxIWZ5d9MaOuijGA2iwcAzjtjQUo=
-----END CERTIFICATE-----
