Certificate:
    Data:
        Version: 3 (0x2)
        Serial Number: 5 (0x5)
        Signature Algorithm: sha256WithRSAEncryption
        Issuer: C=GB, ST=Derbyshire, O=Mosquitto Project, OU=Testing, CN=Signing CA
        Validity
            Not Before: Aug 20 00:00:00 2012 GMT
            Not After : Aug 21 00:00:00 2012 GMT
        Subject: C=GB, ST=Nottinghamshire, L=Nottingham, O=Server, OU=Production, CN=test client expired
        Subject Public Key Info:
            Public Key Algorithm: rsaEncryption
                Public-Key: (2048 bit)
                Modulus:
                    00:aa:fd:ae:95:66:d0:c6:47:c8:d3:c3:61:66:cb:
                    4d:92:32:2a:6b:f1:66:9c:c1:22:a0:9e:1b:d7:e9:
                    90:e3:7e:e5:76:e7:34:fb:d7:74:24:5a:d2:4b:9e:
                    32:fd:c6:b4:7d:97:ff:e4:c8:b7:6f:e2:18:c4:c5:
                    cd:58:88:21:e9:65:11:16:ba:72:dc:ef:3f:99:f3:
                    d8:06:83:4d:42:2f:b7:a9:91:b4:31:45:77:23:18:
                    6f:2f:a3:38:74:01:c0:f9:cd:dc:61:2d:79:5d:fc:
                    2b:65:ad:01:77:a4:fe:84:12:4d:86:b7:7d:3b:41:
                    43:c2:91:b9:c7:08:64:7c:3c:c0:9f:0d:fc:9c:55:
                    e7:51:10:00:b4:5c:67:55:e3:92:dc:c2:4e:09:0b:
                    b8:9d:e3:c8:b5:a4:82:63:d3:e0:5c:bf:0e:c8:12:
                    76:d3:2f:2f:35:d8:4b:56:de:de:ba:21:5c:16:9f:
                    b8:62:06:46:3e:d5:d3:6f:e6:7d:8a:98:b5:ed:96:
                    a3:1e:3a:61:9e:27:f1:68:f1:63:2e:06:69:cf:49:
                    33:f9:4c:f1:79:b6:6d:75:3e:04:53:22:51:ed:20:
                    2f:60:e1:d4:ce:ac:25:ca:f0:a0:8e:85:8e:9d:06:
                    a2:5b:7f:ea:9a:dc:a6:3f:9d:ff:89:28:a0:5b:17:
                    7a:95
                Exponent: 65537 (0x10001)
        X509v3 extensions:
            X509v3 Basic Constraints: critical
                CA:FALSE
            Netscape Comment: 
                OpenSSL Generated Certificate
            X509v3 Subject Key Identifier: 
                16:D7:08:AC:DC:6C:6E:31:9C:35:76:7D:43:26:67:FC:5D:42:67:3E
            X509v3 Authority Key Identifier: 
                C8:63:DE:29:66:24:95:5D:B2:37:6D:F6:A2:01:85:AE:31:0F:8E:45
    Signature Algorithm: sha256WithRSAEncryption
    Signature Value:
        57:ab:0f:6a:2e:3e:c7:3a:02:71:5d:08:ec:9f:1d:f5:13:90:
        6c:d2:b7:bf:63:28:b4:4d:7b:5e:b2:e0:06:98:a9:42:1f:13:
        2a:78:7d:f5:4c:15:06:c8:79:ba:14:58:c7:97:8e:84:da:f5:
        17:58:16:a9:ff:06:70:a7:40:49:cc:ad:22:33:87:d0:f9:cd:
        6a:32:77:61:0f:71:cf:f5:c4:79:3d:44:1e:58:96:b0:fd:e5:
        d6:92:8b:88:f2:98:53:a9:b0:c8:24:9f:4a:d7:6c:a1:66:ea:
        51:25:57:94:82:81:e7:bb:5d:51:a6:b7:48:bb:c0:ce:58:a6:
        60:a6:a7:c6:d5:56:3f:a8:a8:cb:42:dc:f9:7b:e1:b8:c5:7f:
        f9:3f:0b:c4:88:18:f5:8c:0b:9a:0f:57:a1:dc:88:ad:56:e9:
        65:b6:1e:3d:0a:8b:e5:bf:46:40:4f:51:15:cc:eb:18:30:f6:
        bc:66:e2:27:cb:5c:22:09:7d:d4:62:d4:77:7a:a6:66:f7:54:
        e3:07:10:dd:a0:28:ee:71:ff:61:ff:bd:a2:44:0d:a5:6d:74:
        44:76:58:a3:09:d9:17:6e:5f:b8:64:02:7f:96:64:b7:2a:3e:
        31:1b:01:ed:42:db:61:68:f8:a3:7b:02:7e:b9:7c:9c:28:c1:
        da:d3:ea:81
-----BEGIN CERTIFICATE-----
MIID3zCCAsegAwIBAgIBBTANBgkqhkiG9w0BAQsFADBlMQswCQYDVQQGEwJHQjET
MBEGA1UECAwKRGVyYnlzaGlyZTEaMBgGA1UECgwRTW9zcXVpdHRvIFByb2plY3Qx
EDAOBgNVBAsMB1Rlc3RpbmcxEzARBgNVBAMMClNpZ25pbmcgQ0EwHhcNMTIwODIw
MDAwMDAwWhcNMTIwODIxMDAwMDAwWjCBgDELMAkGA1UEBhMCR0IxGDAWBgNVBAgM
D05vdHRpbmdoYW1zaGlyZTETMBEGA1UEBwwKTm90dGluZ2hhbTEPMA0GA1UECgwG
U2VydmVyMRMwEQYDVQQLDApQcm9kdWN0aW9uMRwwGgYDVQQDDBN0ZXN0IGNsaWVu
dCBleHBpcmVkMIIBIjANBgkqhkiG9w0BAQEFAAOCAQ8AMIIBCgKCAQEAqv2ulWbQ
xkfI08NhZstNkjIqa/FmnMEioJ4b1+mQ437lduc0+9d0JFrSS54y/ca0fZf/5Mi3
b+IYxMXNWIgh6WURFrpy3O8/mfPYBoNNQi+3qZG0MUV3IxhvL6M4dAHA+c3cYS15
XfwrZa0Bd6T+hBJNhrd9O0FDwpG5xwhkfDzAnw38nFXnURAAtFxnVeOS3MJOCQu4
nePItaSCY9PgXL8OyBJ20y8vNdhLVt7euiFcFp+4YgZGPtXTb+Z9ipi17ZajHjph
nifxaPFjLgZpz0kz+UzxebZtdT4EUyJR7SAvYOHUzqwlyvCgjoWOnQaiW3/qmtym
P53/iSigWxd6lQIDAQABo34wfDAMBgNVHRMBAf8EAjAAMCwGCWCGSAGG+EIBDQQf
Fh1PcGVuU1NMIEdlbmVyYXRlZCBDZXJ0aWZpY2F0ZTAdBgNVHQ4EFgQUFtcIrNxs
bjGcNXZ9QyZn/F1CZz4wHwYDVR0jBBgwFoAUyGPeKWYklV2yN232ogGFrjEPjkUw
DQYJKoZIhvcNAQELBQADggEBAFerD2ouPsc6AnFdCOyfHfUTkGzSt79jKLRNe16y
4AaYqUIfEyp4ffVMFQbIeboUWMeXjoTa9RdYFqn/BnCnQEnMrSIzh9D5zWoyd2EP
cc/1xHk9RB5YlrD95daSi4jymFOpsMgkn0rXbKFm6lElV5SCgee7XVGmt0i7wM5Y
pmCmp8bVVj+oqMtC3Pl74bjFf/k/C8SIGPWMC5oPV6HciK1W6WW2Hj0Ki+W/RkBP
URXM6xgw9rxm4ifLXCIJfdRi1Hd6pmb3VOMHEN2gKO5x/2H/vaJEDaVtdER2WKMJ
2RduX7hkAn+WZLcqPjEbAe1C22Fo+KN7An65fJwowdrT6oE=
-----END CERTIFICATE-----
