Certificate:
    Data:
        Version: 3 (0x2)
        Serial Number: 7 (0x7)
        Signature Algorithm: sha256WithRSAEncryption
        Issuer: C=GB, ST=Derbyshire, O=Mosquitto Project, OU=Testing, CN=Signing CA
        Validity
            Not Before: Jul  7 22:27:29 2025 GMT
            Not After : Jul  6 22:27:29 2030 GMT
        Subject: C=GB, ST=Nottinghamshire, L=Nottingham, O=Server, OU=Production, CN=test client encrypted
        Subject Public Key Info:
            Public Key Algorithm: rsaEncryption
                Public-Key: (2048 bit)
                Modulus:
                    00:a1:dd:b6:77:f9:03:1b:e1:7c:23:96:b5:a7:b6:
                    c0:2a:2e:f8:14:e9:06:d6:97:64:06:e1:ad:a9:5e:
                    a3:4d:e8:fd:1a:2e:72:6e:55:b3:6b:37:36:27:c5:
                    e7:4a:71:a2:79:1c:c2:69:97:ff:2b:3c:7f:58:ec:
                    0d:c0:6e:65:93:44:a5:91:fa:75:f6:d9:a9:d8:2c:
                    7e:a2:2c:c7:58:55:97:c8:5d:cc:2a:ff:fe:7c:78:
                    aa:49:12:6c:4c:7e:97:09:9f:bd:2c:83:c2:36:30:
                    35:ca:6d:43:a9:80:78:d2:56:14:a3:ce:92:6a:67:
                    51:52:ac:16:0c:b7:4b:2b:52:fe:79:62:4e:4a:65:
                    1f:e5:fa:b9:b3:6f:ae:d4:46:3d:d4:48:03:23:ab:
                    94:e6:ad:bc:38:85:f1:a9:df:43:3a:27:38:1e:fd:
                    b0:5d:36:40:23:69:b2:fe:14:30:93:a1:d1:6b:36:
                    38:65:8a:e3:c7:0a:4b:b6:fc:c7:af:f3:5a:3a:22:
                    ec:df:41:07:96:c0:14:4d:82:b8:25:40:49:4f:6d:
                    ea:a8:44:1e:b9:c6:d0:6d:94:42:20:86:d1:62:05:
                    4f:7a:00:27:f0:27:23:8c:f9:26:6d:2e:f4:61:62:
                    79:26:ea:44:df:71:8e:b0:be:de:13:17:cb:77:14:
                    a0:df
                Exponent: 65537 (0x10001)
        X509v3 extensions:
            X509v3 Basic Constraints: critical
                CA:FALSE
            Netscape Comment: 
                OpenSSL Generated Certificate
            X509v3 Subject Key Identifier: 
                BA:16:BE:F7:34:D2:63:6C:18:88:0A:92:5E:C3:3A:85:3A:09:38:56
            X509v3 Authority Key Identifier: 
                C8:63:DE:29:66:24:95:5D:B2:37:6D:F6:A2:01:85:AE:31:0F:8E:45
    Signature Algorithm: sha256WithRSAEncryption
    Signature Value:
        05:f8:d2:f3:95:b8:8e:b4:74:d8:2a:17:88:d8:aa:28:a9:72:
        1b:a1:c1:67:1c:af:7d:fe:9a:bb:b5:e6:4b:01:19:27:a4:ab:
        fb:cd:aa:df:cb:52:61:22:43:be:d5:46:d7:64:bc:81:39:00:
        98:27:db:e0:fe:b1:78:31:05:7c:bf:cc:9a:ad:5c:7b:d6:47:
        7e:8f:c7:a8:31:b6:ac:21:d4:1a:85:b0:b4:84:84:b4:e7:fc:
        d3:a0:c5:97:f6:ed:6b:93:18:22:68:6a:8b:81:cd:c5:11:02:
        c6:9b:77:08:28:48:28:3b:77:bb:28:21:f7:9e:11:7a:d2:4f:
        67:32:52:a7:aa:4a:59:ee:17:2d:20:f7:6b:61:3b:3f:7b:1b:
        07:9b:82:cb:0e:d7:b1:9d:66:6d:fd:82:cd:5b:1b:66:e2:69:
        c6:33:1a:d4:18:26:49:52:f8:32:b5:6d:6b:22:e6:bc:79:ef:
        85:64:db:e0:76:53:9a:ce:3b:3e:a0:81:6a:27:26:ac:1d:48:
        07:79:6b:e3:bb:19:2c:63:7d:86:fd:ed:67:fa:6f:8e:26:94:
        08:42:d3:55:6b:41:d7:1b:6c:18:c0:12:3c:12:80:61:de:95:
        3b:fe:4a:7c:db:ac:09:5d:6f:ed:1a:1a:5a:fb:f0:fd:3a:17:
        77:93:af:3f
-----BEGIN CERTIFICATE-----
MIID4TCCAsmgAwIBAgIBBzANBgkqhkiG9w0BAQsFADBlMQswCQYDVQQGEwJHQjET
MBEGA1UECAwKRGVyYnlzaGlyZTEaMBgGA1UECgwRTW9zcXVpdHRvIFByb2plY3Qx
EDAOBgNVBAsMB1Rlc3RpbmcxEzARBgNVBAMMClNpZ25pbmcgQ0EwHhcNMjUwNzA3
MjIyNzI5WhcNMzAwNzA2MjIyNzI5WjCBgjELMAkGA1UEBhMCR0IxGDAWBgNVBAgM
D05vdHRpbmdoYW1zaGlyZTETMBEGA1UEBwwKTm90dGluZ2hhbTEPMA0GA1UECgwG
U2VydmVyMRMwEQYDVQQLDApQcm9kdWN0aW9uMR4wHAYDVQQDDBV0ZXN0IGNsaWVu
dCBlbmNyeXB0ZWQwggEiMA0GCSqGSIb3DQEBAQUAA4IBDwAwggEKAoIBAQCh3bZ3
+QMb4XwjlrWntsAqLvgU6QbWl2QG4a2pXqNN6P0aLnJuVbNrNzYnxedKcaJ5HMJp
l/8rPH9Y7A3AbmWTRKWR+nX22anYLH6iLMdYVZfIXcwq//58eKpJEmxMfpcJn70s
g8I2MDXKbUOpgHjSVhSjzpJqZ1FSrBYMt0srUv55Yk5KZR/l+rmzb67URj3USAMj
q5Tmrbw4hfGp30M6Jzge/bBdNkAjabL+FDCTodFrNjhliuPHCku2/Mev81o6Iuzf
QQeWwBRNgrglQElPbeqoRB65xtBtlEIghtFiBU96ACfwJyOM+SZtLvRhYnkm6kTf
cY6wvt4TF8t3FKDfAgMBAAGjfjB8MAwGA1UdEwEB/wQCMAAwLAYJYIZIAYb4QgEN
BB8WHU9wZW5TU0wgR2VuZXJhdGVkIENlcnRpZmljYXRlMB0GA1UdDgQWBBS6Fr73
NNJjbBiICpJewzqFOgk4VjAfBgNVHSMEGDAWgBTIY94pZiSVXbI3bfaiAYWuMQ+O
RTANBgkqhkiG9w0BAQsFAAOCAQEABfjS85W4jrR02CoXiNiqKKlyG6HBZxyvff6a
u7XmSwEZJ6Sr+82q38tSYSJDvtVG12S8gTkAmCfb4P6xeDEFfL/Mmq1ce9ZHfo/H
qDG2rCHUGoWwtISEtOf806DFl/bta5MYImhqi4HNxRECxpt3CChIKDt3uygh954R
etJPZzJSp6pKWe4XLSD3a2E7P3sbB5uCyw7XsZ1mbf2CzVsbZuJpxjMa1BgmSVL4
MrVtayLmvHnvhWTb4HZTms47PqCBaicmrB1IB3lr47sZLGN9hv3tZ/pvjiaUCELT
VWtB1xtsGMASPBKAYd6VO/5KfNusCV1v7RoaWvvw/ToXd5OvPw==
-----END CERTIFICATE-----
