Certificate:
    Data:
        Version: 3 (0x2)
        Serial Number: 2 (0x2)
        Signature Algorithm: sha256WithRSAEncryption
        Issuer: C=GB, ST=Derbyshire, O=Mosquitto Project, OU=Testing, CN=Signing CA
        Validity
            Not Before: Jul  7 22:27:29 2025 GMT
            Not After : Jul  6 22:27:29 2030 GMT
        Subject: C=GB, ST=Nottinghamshire, L=Nottingham, O=Server, OU=Production, CN=san
        Subject Public Key Info:
            Public Key Algorithm: rsaEncryption
                Public-Key: (2048 bit)
                Modulus:
                    00:a9:25:cd:2f:17:90:aa:7f:7b:86:d5:ec:2e:1e:
                    4f:b6:6b:62:87:59:70:b8:69:1d:3d:e4:f6:5e:d2:
                    49:a5:26:70:c6:78:df:16:66:77:2e:87:8b:81:12:
                    b5:41:46:cb:f2:28:fd:5f:dc:16:20:52:0d:dc:de:
                    77:97:d8:6d:b2:44:53:3c:cd:c0:50:69:d9:a5:73:
                    b7:48:a7:bd:01:bd:2b:82:f9:8d:3d:a4:94:0b:b9:
                    bb:5a:c7:0b:0c:84:48:ac:3d:ee:dd:72:e7:c0:a8:
                    cc:c5:85:c5:c3:df:6b:90:d7:e2:05:6c:1b:ec:37:
                    57:57:98:e7:19:1c:19:38:68:97:3d:51:74:33:44:
                    e4:33:3d:dc:a1:de:90:7a:37:fa:d1:95:e9:06:83:
                    7c:92:6c:42:5c:27:d6:7f:4b:5b:73:4a:be:a7:24:
                    c4:e3:3e:80:ba:7e:d3:c7:ad:80:d6:c4:db:d4:fb:
                    e1:1f:e3:4f:4b:65:aa:1e:ab:ae:65:c1:08:df:1a:
                    34:d2:a0:56:71:37:e3:cd:5a:c3:22:a9:49:bc:b1:
                    71:22:59:03:88:2f:b8:2d:b0:a9:a4:53:d8:fd:a0:
                    c3:a5:f2:e0:15:1e:40:22:ff:aa:65:e3:89:e3:8d:
                    51:ec:b5:08:60:6d:45:a3:7d:82:27:93:e4:86:b4:
                    3e:5d
                Exponent: 65537 (0x10001)
        X509v3 extensions:
            X509v3 Basic Constraints: critical
                CA:FALSE
            X509v3 Subject Key Identifier: 
                24:AB:08:6C:BB:5A:DD:85:4E:A1:8B:E4:66:EA:F2:C8:BE:EE:51:B9
            X509v3 Authority Key Identifier: 
                C8:63:DE:29:66:24:95:5D:B2:37:6D:F6:A2:01:85:AE:31:0F:8E:45
            X509v3 Subject Alternative Name: 
                IP Address:127.0.0.1, DNS:localhost, IP Address:0:0:0:0:0:0:0:1
            X509v3 Key Usage: 
                Digital Signature, Non Repudiation, Key Encipherment
    Signature Algorithm: sha256WithRSAEncryption
    Signature Value:
        78:4e:c7:8c:b8:96:51:ed:ee:e6:04:c5:61:fd:74:22:2f:00:
        b7:4c:63:99:ae:35:31:4f:c2:13:f0:aa:64:04:1e:7d:df:bc:
        16:27:67:d8:af:cd:8c:4f:d8:c1:48:f7:28:ec:00:25:98:3d:
        ab:75:33:4c:9a:4d:a6:50:3c:d3:eb:62:d4:e8:32:17:5f:18:
        7b:3d:45:d2:16:7c:2c:21:30:aa:75:f4:d0:68:bc:9f:94:2e:
        f5:36:3b:94:b5:4e:6f:58:f5:8c:0b:ba:d4:f2:d9:01:1a:e3:
        d1:8b:85:41:e5:95:8a:1b:1e:b2:a4:1f:78:b7:de:80:12:1d:
        cd:ea:93:b5:1e:39:ad:5e:b8:78:ba:26:40:1e:c8:37:d9:b8:
        d2:86:6f:5c:a9:5a:27:5b:19:3a:d2:c2:7d:cb:69:96:6c:17:
        4c:00:39:2d:d0:6e:08:26:2b:2e:3c:df:9f:8b:29:85:65:bb:
        b8:9e:4a:5d:ca:5c:91:58:6b:b2:f5:9a:09:37:c8:f7:2e:48:
        df:a9:9a:ea:de:e5:d2:91:b2:c4:ad:49:0a:24:70:8f:da:e6:
        21:8f:67:e4:e8:e4:b1:2f:d2:6e:c0:83:46:37:2a:ee:69:fb:
        d6:09:b7:a4:0a:46:e8:3d:fc:c3:20:b7:0c:80:a3:a8:be:bd:
        33:af:15:c6
-----BEGIN CERTIFICATE-----
MIID3TCCAsWgAwIBAgIBAjANBgkqhkiG9w0BAQsFADBlMQswCQYDVQQGEwJHQjET
MBEGA1UECAwKRGVyYnlzaGlyZTEaMBgGA1UECgwRTW9zcXVpdHRvIFByb2plY3Qx
EDAOBgNVBAsMB1Rlc3RpbmcxEzARBgNVBAMMClNpZ25pbmcgQ0EwHhcNMjUwNzA3
MjIyNzI5WhcNMzAwNzA2MjIyNzI5WjBwMQswCQYDVQQGEwJHQjEYMBYGA1UECAwP
Tm90dGluZ2hhbXNoaXJlMRMwEQYDVQQHDApOb3R0aW5naGFtMQ8wDQYDVQQKDAZT
ZXJ2ZXIxEzARBgNVBAsMClByb2R1Y3Rpb24xDDAKBgNVBAMMA3NhbjCCASIwDQYJ
KoZIhvcNAQEBBQADggEPADCCAQoCggEBAKklzS8XkKp/e4bV7C4eT7ZrYodZcLhp
HT3k9l7SSaUmcMZ43xZmdy6Hi4EStUFGy/Io/V/cFiBSDdzed5fYbbJEUzzNwFBp
2aVzt0invQG9K4L5jT2klAu5u1rHCwyESKw97t1y58CozMWFxcPfa5DX4gVsG+w3
V1eY5xkcGTholz1RdDNE5DM93KHekHo3+tGV6QaDfJJsQlwn1n9LW3NKvqckxOM+
gLp+08etgNbE29T74R/jT0tlqh6rrmXBCN8aNNKgVnE3481awyKpSbyxcSJZA4gv
uC2wqaRT2P2gw6Xy4BUeQCL/qmXjieONUey1CGBtRaN9gieT5Ia0Pl0CAwEAAaOB
jDCBiTAMBgNVHRMBAf8EAjAAMB0GA1UdDgQWBBQkqwhsu1rdhU6hi+Rm6vLIvu5R
uTAfBgNVHSMEGDAWgBTIY94pZiSVXbI3bfaiAYWuMQ+ORTAsBgNVHREEJTAjhwR/
AAABgglsb2NhbGhvc3SHEAAAAAAAAAAAAAAAAAAAAAEwCwYDVR0PBAQDAgXgMA0G
CSqGSIb3DQEBCwUAA4IBAQB4TseMuJZR7e7mBMVh/XQiLwC3TGOZrjUxT8IT8Kpk
BB5937wWJ2fYr82MT9jBSPco7AAlmD2rdTNMmk2mUDzT62LU6DIXXxh7PUXSFnws
ITCqdfTQaLyflC71NjuUtU5vWPWMC7rU8tkBGuPRi4VB5ZWKGx6ypB94t96AEh3N
6pO1HjmtXrh4uiZAHsg32bjShm9cqVonWxk60sJ9y2mWbBdMADkt0G4IJisuPN+f
iymFZbu4nkpdylyRWGuy9ZoJN8j3LkjfqZrq3uXSkbLErUkKJHCP2uYhj2fk6OSx
L9JuwINGNyruafvWCbekCkboPfzDILcMgKOovr0zrxXG
-----END CERTIFICATE-----
