Certificate:
    Data:
        Version: 3 (0x2)
        Serial Number: 3 (0x3)
        Signature Algorithm: sha256WithRSAEncryption
        Issuer: C=GB, ST=Derbyshire, O=Mosquitto Project, OU=Testing, CN=Signing CA
        Validity
            Not Before: Aug 20 00:00:00 2012 GMT
            Not After : Aug 21 00:00:00 2012 GMT
        Subject: C=GB, ST=Nottinghamshire, L=Nottingham, O=Server, OU=Production-expired, CN=localhost
        Subject Public Key Info:
            Public Key Algorithm: rsaEncryption
                Public-Key: (2048 bit)
                Modulus:
                    00:b3:c1:ba:78:89:96:f8:3d:54:e1:fc:56:8d:d0:
                    2a:83:ae:8e:f1:76:39:4b:18:fb:4e:fc:36:c1:1e:
                    a3:07:53:71:6a:0e:2e:c1:22:cd:a8:cc:f7:f5:cc:
                    f8:2e:d4:d1:2e:7d:d0:d2:aa:a7:87:1f:4c:31:0f:
                    96:28:80:d2:52:ea:25:0c:32:e1:bb:64:81:bf:b4:
                    7b:11:b5:89:31:20:91:00:26:06:2f:09:f6:a7:c1:
                    6a:00:73:c7:12:d1:dd:88:33:66:54:f0:d6:7f:15:
                    1c:74:47:29:c7:03:2a:b9:c1:00:36:83:d9:48:b8:
                    54:f5:bc:df:57:9f:85:2a:91:03:be:c6:4f:5b:03:
                    68:aa:f8:e9:25:dd:5a:81:f2:c2:e8:0c:93:a0:05:
                    d6:d1:77:49:ca:c5:1e:42:27:25:9d:fd:cc:e2:a7:
                    4b:28:05:e6:f5:1e:b3:97:3d:c4:25:65:f2:5b:cf:
                    3e:07:19:33:c0:fd:14:b4:a0:53:e1:6c:90:50:22:
                    76:29:b0:7a:45:2e:33:cd:c7:39:99:12:7e:d9:15:
                    f9:ec:5f:69:92:d4:1c:2c:57:8a:12:a9:fc:94:da:
                    04:1a:17:18:7d:82:a3:03:8f:20:e8:f3:be:d2:61:
                    86:42:49:b5:d5:6e:cd:3d:6d:1d:fb:8b:3e:39:31:
                    df:95
                Exponent: 65537 (0x10001)
        X509v3 extensions:
            X509v3 Basic Constraints: critical
                CA:FALSE
            Netscape Comment: 
                OpenSSL Generated Certificate
            X509v3 Subject Key Identifier: 
                33:48:15:F4:7F:39:F2:A1:26:77:FB:15:D1:A5:DC:CC:A7:E2:E9:99
            X509v3 Authority Key Identifier: 
                C8:63:DE:29:66:24:95:5D:B2:37:6D:F6:A2:01:85:AE:31:0F:8E:45
    Signature Algorithm: sha256WithRSAEncryption
    Signature Value:
        30:1e:c8:50:28:e4:10:60:d5:2a:82:65:0d:81:81:7b:bc:5c:
        67:83:12:d3:e3:71:9d:91:2e:b9:ff:ca:e0:21:ad:74:45:72:
        be:49:54:f6:f0:22:09:18:84:67:53:88:51:31:20:e7:0d:52:
        bc:a9:ce:e2:72:27:b4:b9:da:28:03:19:53:46:46:ef:1e:ad:
        3d:b1:21:df:ea:53:36:97:73:a1:a2:84:6e:9b:d1:b7:bc:7d:
        3a:81:c9:35:76:fa:cf:70:c4:20:07:f0:c4:dd:c1:6c:0e:e2:
        28:33:dc:ac:e5:90:b9:89:9d:8e:a6:2a:3e:36:b3:d7:17:f5:
        76:08:96:c0:ca:07:4f:56:82:5b:93:c8:5d:fe:4c:7d:33:92:
        ee:6e:25:0c:ff:bb:3d:7f:b1:c1:36:dc:d9:aa:1a:4f:88:21:
        d4:67:77:8c:08:5c:ed:c2:6c:6b:92:78:4b:5a:23:a0:ed:9b:
        27:63:d4:f1:0a:b3:b8:eb:95:01:fe:82:67:da:66:c9:51:d8:
        5d:40:9f:69:bc:e5:4f:7c:19:45:ea:7c:d2:49:29:b7:b5:c6:
        66:b2:66:8d:01:d4:bb:b0:2f:e9:c8:27:d1:93:f9:97:21:25:
        f3:b2:69:69:0b:d3:40:c4:3e:23:43:6d:8f:9a:7c:2b:c7:44:
        f0:99:f2:d8
-----BEGIN CERTIFICATE-----
MIID3DCCAsSgAwIBAgIBAzANBgkqhkiG9w0BAQsFADBlMQswCQYDVQQGEwJHQjET
MBEGA1UECAwKRGVyYnlzaGlyZTEaMBgGA1UECgwRTW9zcXVpdHRvIFByb2plY3Qx
EDAOBgNVBAsMB1Rlc3RpbmcxEzARBgNVBAMMClNpZ25pbmcgQ0EwHhcNMTIwODIw
MDAwMDAwWhcNMTIwODIxMDAwMDAwWjB+MQswCQYDVQQGEwJHQjEYMBYGA1UECAwP
Tm90dGluZ2hhbXNoaXJlMRMwEQYDVQQHDApOb3R0aW5naGFtMQ8wDQYDVQQKDAZT
ZXJ2ZXIxGzAZBgNVBAsMElByb2R1Y3Rpb24tZXhwaXJlZDESMBAGA1UEAwwJbG9j
YWxob3N0MIIBIjANBgkqhkiG9w0BAQEFAAOCAQ8AMIIBCgKCAQEAs8G6eImW+D1U
4fxWjdAqg66O8XY5Sxj7Tvw2wR6jB1Nxag4uwSLNqMz39cz4LtTRLn3Q0qqnhx9M
MQ+WKIDSUuolDDLhu2SBv7R7EbWJMSCRACYGLwn2p8FqAHPHEtHdiDNmVPDWfxUc
dEcpxwMqucEANoPZSLhU9bzfV5+FKpEDvsZPWwNoqvjpJd1agfLC6AyToAXW0XdJ
ysUeQiclnf3M4qdLKAXm9R6zlz3EJWXyW88+BxkzwP0UtKBT4WyQUCJ2KbB6RS4z
zcc5mRJ+2RX57F9pktQcLFeKEqn8lNoEGhcYfYKjA48g6PO+0mGGQkm11W7NPW0d
+4s+OTHflQIDAQABo34wfDAMBgNVHRMBAf8EAjAAMCwGCWCGSAGG+EIBDQQfFh1P
cGVuU1NMIEdlbmVyYXRlZCBDZXJ0aWZpY2F0ZTAdBgNVHQ4EFgQUM0gV9H858qEm
d/sV0aXczKfi6ZkwHwYDVR0jBBgwFoAUyGPeKWYklV2yN232ogGFrjEPjkUwDQYJ
KoZIhvcNAQELBQADggEBADAeyFAo5BBg1SqCZQ2BgXu8XGeDEtPjcZ2RLrn/yuAh
rXRFcr5JVPbwIgkYhGdTiFExIOcNUrypzuJyJ7S52igDGVNGRu8erT2xId/qUzaX
c6GihG6b0be8fTqByTV2+s9wxCAH8MTdwWwO4igz3KzlkLmJnY6mKj42s9cX9XYI
lsDKB09WgluTyF3+TH0zku5uJQz/uz1/scE23NmqGk+IIdRnd4wIXO3CbGuSeEta
I6Dtmydj1PEKs7jrlQH+gmfaZslR2F1An2m85U98GUXqfNJJKbe1xmayZo0B1Luw
L+nIJ9GT+ZchJfOyaWkL00DEPiNDbY+afCvHRPCZ8tg=
-----END CERTIFICATE-----
