Certificate:
    Data:
        Version: 3 (0x2)
        Serial Number: 2 (0x2)
        Signature Algorithm: sha256WithRSAEncryption
        Issuer: C=GB, ST=Derbyshire, L=Derby, O=Mosquitto Project, OU=Testing, CN=Root CA
        Validity
            Not Before: Jul  7 22:27:28 2025 GMT
            Not After : Jul  6 22:27:28 2030 GMT
        Subject: C=GB, ST=Derbyshire, O=Mosquitto Project, OU=Testing, CN=Alternative Signing CA
        Subject Public Key Info:
            Public Key Algorithm: rsaEncryption
                Public-Key: (2048 bit)
                Modulus:
                    00:af:de:b9:88:7f:45:02:9c:72:21:85:f6:05:7b:
                    66:2c:67:e1:80:3e:65:65:f8:09:fd:52:f0:53:0d:
                    33:65:ab:c3:3c:03:ff:8d:ca:b7:d6:88:8e:e5:b8:
                    2e:66:0e:81:8e:b9:dc:2d:13:22:49:12:5a:be:71:
                    f7:2f:75:bb:aa:af:83:18:f6:ec:00:1d:19:2f:98:
                    d4:44:a6:99:0d:22:be:fd:91:fc:68:58:9a:c4:9a:
                    75:4a:06:6b:8d:5e:0d:3b:51:f2:bf:88:d7:a1:c3:
                    30:47:86:4e:cb:30:a5:1b:6d:d7:b0:93:65:0f:b4:
                    1c:bf:f2:16:a2:0a:4d:f7:1d:76:ba:5b:20:97:a5:
                    a4:9f:4a:f2:4e:9f:7f:e4:19:66:31:5e:69:c8:7d:
                    32:ae:ae:d5:61:d9:c9:a3:73:b9:81:f9:78:d0:b0:
                    34:1a:7b:6b:38:01:5b:71:41:23:90:29:56:1d:22:
                    f1:d3:e0:eb:ac:6c:d4:bf:46:fc:c4:78:cb:36:d4:
                    f9:c2:47:98:0a:11:26:c1:26:2e:fc:ec:6b:b4:df:
                    04:1f:84:36:06:c7:26:ac:bf:bf:e1:ab:62:39:6f:
                    ba:79:5e:01:33:66:e6:13:4f:c7:d5:98:57:04:3e:
                    28:94:7f:64:2e:92:3c:0c:5b:b0:2e:64:7a:71:e4:
                    32:2b
                Exponent: 65537 (0x10001)
        X509v3 extensions:
            X509v3 Subject Key Identifier: 
                42:84:86:43:AC:B2:A4:A9:74:E5:6B:B8:B1:B9:16:03:C4:3F:A2:9C
            X509v3 Authority Key Identifier: 
                4F:56:ED:BA:57:12:46:13:CF:96:E3:2C:C1:91:64:69:5B:9A:E7:05
            X509v3 Basic Constraints: critical
                CA:TRUE
            X509v3 Key Usage: 
                Certificate Sign, CRL Sign
    Signature Algorithm: sha256WithRSAEncryption
    Signature Value:
        ed:20:93:a4:3d:c4:c7:d4:02:45:ce:6a:9b:27:8a:c0:ba:4b:
        52:64:e3:0e:e7:72:60:67:8c:ab:88:c4:d9:6f:a7:29:17:1b:
        d7:2a:23:dd:b9:a4:9c:7a:95:cc:56:a9:09:07:8c:93:e6:52:
        07:90:2f:b4:ae:53:39:cd:22:4b:16:80:d4:9d:96:2f:4a:c7:
        ef:ab:02:1f:f2:8b:a1:3a:5b:e8:56:2d:65:74:a1:32:3d:9a:
        5f:67:09:1c:fb:a0:20:76:98:c2:79:ce:1e:3e:0f:e3:16:51:
        d5:a8:42:96:6c:8e:13:53:68:29:63:45:68:fe:7f:65:34:d7:
        c0:e3:81:f6:cd:36:91:da:07:bf:ff:00:2e:13:55:af:63:d1:
        d3:9b:40:44:9e:51:34:7e:0f:7e:01:b7:c2:f6:7c:42:0d:ac:
        78:6a:cd:35:f7:06:e3:ac:89:59:b3:54:a2:5c:bb:98:02:0b:
        e4:f3:1d:74:ab:25:8b:1b:13:5a:bc:74:47:0d:9b:d6:cf:0f:
        eb:9a:9e:1c:10:82:97:da:df:59:71:9b:9a:2f:4d:e6:8a:f6:
        fb:b4:af:d9:ee:ba:92:15:33:b0:56:2c:8d:bf:b3:ba:ab:a7:
        d6:f8:d0:2f:10:8e:85:6d:47:89:5a:b5:49:95:58:7a:ae:60:
        5a:c8:f5:67
-----BEGIN CERTIFICATE-----
MIIDvjCCAqagAwIBAgIBAjANBgkqhkiG9w0BAQsFADByMQswCQYDVQQGEwJHQjET
MBEGA1UECAwKRGVyYnlzaGlyZTEOMAwGA1UEBwwFRGVyYnkxGjAYBgNVBAoMEU1v
c3F1aXR0byBQcm9qZWN0MRAwDgYDVQQLDAdUZXN0aW5nMRAwDgYDVQQDDAdSb290
IENBMB4XDTI1MDcwNzIyMjcyOFoXDTMwMDcwNjIyMjcyOFowcTELMAkGA1UEBhMC
R0IxEzARBgNVBAgMCkRlcmJ5c2hpcmUxGjAYBgNVBAoMEU1vc3F1aXR0byBQcm9q
ZWN0MRAwDgYDVQQLDAdUZXN0aW5nMR8wHQYDVQQDDBZBbHRlcm5hdGl2ZSBTaWdu
aW5nIENBMIIBIjANBgkqhkiG9w0BAQEFAAOCAQ8AMIIBCgKCAQEAr965iH9FApxy
IYX2BXtmLGfhgD5lZfgJ/VLwUw0zZavDPAP/jcq31oiO5bguZg6BjrncLRMiSRJa
vnH3L3W7qq+DGPbsAB0ZL5jURKaZDSK+/ZH8aFiaxJp1SgZrjV4NO1Hyv4jXocMw
R4ZOyzClG23XsJNlD7Qcv/IWogpN9x12ulsgl6Wkn0ryTp9/5BlmMV5pyH0yrq7V
YdnJo3O5gfl40LA0GntrOAFbcUEjkClWHSLx0+DrrGzUv0b8xHjLNtT5wkeYChEm
wSYu/OxrtN8EH4Q2BscmrL+/4atiOW+6eV4BM2bmE0/H1ZhXBD4olH9kLpI8DFuw
LmR6ceQyKwIDAQABo2AwXjAdBgNVHQ4EFgQUQoSGQ6yypKl05Wu4sbkWA8Q/opww
HwYDVR0jBBgwFoAUT1btulcSRhPPluMswZFkaVua5wUwDwYDVR0TAQH/BAUwAwEB
/zALBgNVHQ8EBAMCAQYwDQYJKoZIhvcNAQELBQADggEBAO0gk6Q9xMfUAkXOapsn
isC6S1Jk4w7ncmBnjKuIxNlvpykXG9cqI925pJx6lcxWqQkHjJPmUgeQL7SuUznN
IksWgNSdli9Kx++rAh/yi6E6W+hWLWV0oTI9ml9nCRz7oCB2mMJ5zh4+D+MWUdWo
QpZsjhNTaCljRWj+f2U018DjgfbNNpHaB7//AC4TVa9j0dObQESeUTR+D34Bt8L2
fEINrHhqzTX3BuOsiVmzVKJcu5gCC+TzHXSrJYsbE1q8dEcNm9bPD+uanhwQgpfa
31lxm5ovTeaK9vu0r9nuupIVM7BWLI2/s7qrp9b40C8QjoVtR4latUmVWHquYFrI
9Wc=
-----END CERTIFICATE-----
